(dp0
S'start_name'
p1
(dp2
S'description'
p3
S' '
p4
sS'author'
p5
g4
sS'comments'
p6
(lp7
sS'skill_set'
p8
(dp9
S'framework'
p10
(lp11
sS'module'
p12
(lp13
sS'language'
p14
(lp15
ssS'likes'
p16
I0
sS'members'
p17
(lp18
ssS'Social'
p19
(dp20
S'description'
p21
S'bla'
p22
sS'author'
p23
S'Avantika'
p24
sS'comments'
p25
(lp26
sS'skill_set'
p27
(dp28
S'framework'
p29
(lp30
(lp31
S'bla'
p32
aasS'module'
p33
(lp34
(lp35
S'bla'
p36
aasS'language'
p37
(lp38
(lp39
S'c'
p40
aS'php'
p41
aassS'likes'
p42
I0
sS'members'
p43
(lp44
ss.