(dp0
S'Pooja'
p1
(dp2
S'messages'
p3
(lp4
sS'startup'
p5
I0
sS'request'
p6
(lp7
(g2
S' requested to join the project '
p8
(dp9
S'description'
p10
S'bla'
p11
sS'comments'
p12
(lp13
S'Nice'
p14
asS'likes'
p15
I0
sS'members'
p16
(lp17
sS'author'
p18
S'Avantika'
p19
stp20
asS'batch'
p21
S'b9'
p22
sS'contact_no'
p23
S'123678'
p24
sS'proj'
p25
I0
sS'year'
p26
I2
sS'technologies'
p27
(dp28
S'languages'
p29
(lp30
(lp31
S'c'
p32
aS'c++'
p33
aasS'framework'
p34
(lp35
(lp36
S'xyz'
p37
aasS'module'
p38
(lp39
(lp40
S'xyz'
p41
aassS'password'
p42
S'1234'
p43
ssS'Avantika'
p44
(dp45
S'messages'
p46
(lp47
sS'startup'
p48
I4
sS'request'
p49
(lp50
(g2
S' requested to join the project '
p51
(dp52
S'comments'
p53
(lp54
S'Nice'
p55
asS'likes'
p56
I0
sS'description'
p57
S'bla'
p58
sS'members'
p59
(lp60
sS'author'
p61
S'Avantika'
p62
stp63
a((dp64
S'messages'
p65
(lp66
sS'startup'
p67
I0
sS'request'
p68
(lp69
sS'batch'
p70
S'b1'
p71
sS'contact_no'
p72
S'123456'
p73
sS'proj'
p74
I0
sS'year'
p75
I2
sS'technologies'
p76
(dp77
S'languages'
p78
(lp79
(lp80
S'c'
p81
aS'php'
p82
aasS'framework'
p83
(lp84
(lp85
S'a'
p86
aasS'module'
p87
(lp88
(lp89
g86
aassS'password'
p90
S'12'
p91
sS' requested to join the project '
p92
(dp93
S'description'
p94
S'bla'
p95
sS'comments'
p96
(lp97
S'Nice'
p98
asS'likes'
p99
I0
sS'members'
p100
(lp101
sS'author'
p102
S'Avantika'
p103
stp104
aS'Rahul requested to join the startup Social'
p105
asS'batch'
p106
S'b8'
p107
sS'contact_no'
p108
S'123098'
p109
sS'proj'
p110
I1
sS'year'
p111
I2
sS'technologies'
p112
(dp113
S'languages'
p114
(lp115
(lp116
S'c'
p117
aS'java'
p118
aasS'framework'
p119
(lp120
(lp121
S'bla'
p122
aasS'module'
p123
(lp124
(lp125
S'bla'
p126
aassS'password'
p127
S'123'
p128
ssS'Rahul'
p129
g64
s.